target datalayout = "e-m:e-p270:32:32-p271:32:32-p272:64:64-i64:64-i128:128-f80:128-n8:16:32:64-S128"
target triple = "x86_64-pc-linux-gnu"

%struct.AVFormatContext = type { ptr, ptr, ptr, ptr, ptr, i32, i32, ptr, i32, ptr, i32, ptr, ptr, i64, i64, i64, i32, i32, i32, i64, i64, ptr, i32, i32, ptr, i32, i32, i32, i32, ptr, i64, i32, i32, %struct.AVIOInterruptCB, i32, i32, i32, i32, i64, i32, i32, i32, i32, i32, i32, i32, i32, i32, i32, i32, i32, i64, i32, i32, i32, i32, i32, ptr, ptr, ptr, ptr, i32, ptr, ptr, ptr, ptr, i32, ptr, ptr, i64, ptr, ptr, ptr, i64 }
%struct.AVIOInterruptCB = type { ptr, ptr }
%struct.ASFContext = type { i32, i32, i32, i64, i64, i32, i64, i32, i32, i32, i64, i64, i64, i64, i64, i64, i32, [128 x ptr], [128 x %struct.ASFStreamData], i32, i32, i64, i64, i8, i32, i64, i32, i32, i64, i32, i16, i64, i32, i32 }
%struct.ASFStreamData = type { [32 x i8], ptr, %struct.AVRational }
%struct.AVRational = type { i32, i32 }

; Function Attrs: alwaysinline nounwind uwtable
define internal i64 @avio_tell(ptr noundef %0) #1 {
  %2 = alloca ptr, align 8
  store ptr %0, ptr %2, align 8, !tbaa !33
  %3 = load ptr, ptr %2, align 8, !tbaa !33
  %4 = call i64 @avio_seek(ptr noundef %3, i64 noundef 0, i32 noundef 1)
  ret i64 %4
}

; Function Attrs: nounwind uwtable
define internal void @align_position(ptr noundef %0, i64 noundef %1, i64 noundef %2) #0 {
  %4 = alloca ptr, align 8
  %5 = alloca i64, align 8
  %6 = alloca i64, align 8
  store ptr %0, ptr %4, align 8, !tbaa !33
  store i64 %1, ptr %5, align 8, !tbaa !47
  store i64 %2, ptr %6, align 8, !tbaa !47
  %7 = load i64, ptr %6, align 8, !tbaa !47
  %8 = load i64, ptr %5, align 8, !tbaa !47
  %9 = sub nsw i64 9223372036854775807, %8
  %10 = icmp ult i64 %7, %9
  br i1 %10, label %11, label %24

11:                                               ; preds = %3
  %12 = load ptr, ptr %4, align 8, !tbaa !33
  %13 = call i64 @avio_tell(ptr noundef %12)
  %14 = load i64, ptr %5, align 8, !tbaa !47
  %15 = load i64, ptr %6, align 8, !tbaa !47
  %16 = add i64 %14, %15
  %17 = icmp ne i64 %13, %16
  br i1 %17, label %18, label %24

18:                                               ; preds = %11
  %19 = load ptr, ptr %4, align 8, !tbaa !33
  %20 = load i64, ptr %5, align 8, !tbaa !47
  %21 = load i64, ptr %6, align 8, !tbaa !47
  %22 = add i64 %20, %21
  %23 = call i64 @avio_seek(ptr noundef %19, i64 noundef %22, i32 noundef 0)
  br label %24

24:                                               ; preds = %18, %11, %3
  ret void
}

; Function Attrs: nounwind uwtable
define internal i32 @asf_read_marker(ptr noundef %0, ptr noundef %1) #0 {
  %3 = alloca i32, align 4
  %4 = alloca ptr, align 8
  %5 = alloca ptr, align 8
  %6 = alloca ptr, align 8
  %7 = alloca ptr, align 8
  %8 = alloca i64, align 8
  %9 = alloca i32, align 4
  %10 = alloca i32, align 4
  %11 = alloca i32, align 4
  %12 = alloca i64, align 8
  %13 = alloca [1024 x i8], align 16
  %14 = alloca i64, align 8
  %15 = alloca i32, align 4
  %16 = alloca %struct.AVRational, align 4
  store ptr %0, ptr %4, align 8, !tbaa !13
  store ptr %1, ptr %5, align 8, !tbaa !34
  call void @llvm.lifetime.start.p0(i64 8, ptr %6) #10
  %17 = load ptr, ptr %4, align 8, !tbaa !13
  %18 = getelementptr inbounds nuw %struct.AVFormatContext, ptr %17, i32 0, i32 3
  %19 = load ptr, ptr %18, align 8, !tbaa !15
  store ptr %19, ptr %6, align 8, !tbaa !30
  call void @llvm.lifetime.start.p0(i64 8, ptr %7) #10
  %20 = load ptr, ptr %4, align 8, !tbaa !13
  %21 = getelementptr inbounds nuw %struct.AVFormatContext, ptr %20, i32 0, i32 4
  %22 = load ptr, ptr %21, align 8, !tbaa !32
  store ptr %22, ptr %7, align 8, !tbaa !33
  call void @llvm.lifetime.start.p0(i64 8, ptr %8) #10
  %23 = load ptr, ptr %7, align 8, !tbaa !33
  %24 = call i64 @avio_rl64(ptr noundef %23)
  store i64 %24, ptr %8, align 8, !tbaa !47
  call void @llvm.lifetime.start.p0(i64 4, ptr %9) #10
  call void @llvm.lifetime.start.p0(i64 4, ptr %10) #10
  call void @llvm.lifetime.start.p0(i64 4, ptr %11) #10
  call void @llvm.lifetime.start.p0(i64 8, ptr %12) #10
  call void @llvm.lifetime.start.p0(i64 1024, ptr %13) #10
  %25 = load ptr, ptr %7, align 8, !tbaa !33
  %26 = call i64 @avio_skip(ptr noundef %25, i64 noundef 8)
  %27 = load ptr, ptr %7, align 8, !tbaa !33
  %28 = call i64 @avio_skip(ptr noundef %27, i64 noundef 8)
  %29 = load ptr, ptr %7, align 8, !tbaa !33
  %30 = call i32 @avio_rl32(ptr noundef %29)
  store i32 %30, ptr %10, align 4, !tbaa !42
  %31 = load ptr, ptr %7, align 8, !tbaa !33
  %32 = call i64 @avio_skip(ptr noundef %31, i64 noundef 2)
  %33 = load ptr, ptr %7, align 8, !tbaa !33
  %34 = call i32 @avio_rl16(ptr noundef %33)
  %35 = zext i32 %34 to i64
  store i64 %35, ptr %12, align 8, !tbaa !47
  store i32 0, ptr %9, align 4, !tbaa !42
  br label %36

36:                                               ; preds = %44, %2
  %37 = load i32, ptr %9, align 4, !tbaa !42
  %38 = sext i32 %37 to i64
  %39 = load i64, ptr %12, align 8, !tbaa !47
  %40 = icmp ult i64 %38, %39
  br i1 %40, label %41, label %47

41:                                               ; preds = %36
  %42 = load ptr, ptr %7, align 8, !tbaa !33
  %43 = call i64 @avio_skip(ptr noundef %42, i64 noundef 1)
  br label %44

44:                                               ; preds = %41
  %45 = load i32, ptr %9, align 4, !tbaa !42
  %46 = add nsw i32 %45, 1
  store i32 %46, ptr %9, align 4, !tbaa !42
  br label %36, !llvm.loop !163

47:                                               ; preds = %36
  store i32 0, ptr %9, align 4, !tbaa !42
  br label %48

48:                                               ; preds = %105, %47
  %49 = load i32, ptr %9, align 4, !tbaa !42
  %50 = load i32, ptr %10, align 4, !tbaa !42
  %51 = icmp slt i32 %49, %50
  br i1 %51, label %52, label %108

52:                                               ; preds = %48
  call void @llvm.lifetime.start.p0(i64 8, ptr %14) #10
  %53 = load ptr, ptr %7, align 8, !tbaa !33
  %54 = call i64 @avio_skip(ptr noundef %53, i64 noundef 8)
  %55 = load ptr, ptr %7, align 8, !tbaa !33
  %56 = call i64 @avio_rl64(ptr noundef %55)
  store i64 %56, ptr %14, align 8, !tbaa !47
  %57 = load ptr, ptr %6, align 8, !tbaa !30
  %58 = getelementptr inbounds nuw %struct.ASFContext, ptr %57, i32 0, i32 3
  %59 = load i64, ptr %58, align 8, !tbaa !36
  %60 = mul i64 %59, 10000
  %61 = load i64, ptr %14, align 8, !tbaa !47
  %62 = sub i64 %61, %60
  store i64 %62, ptr %14, align 8, !tbaa !47
  %63 = load ptr, ptr %7, align 8, !tbaa !33
  %64 = call i64 @avio_skip(ptr noundef %63, i64 noundef 2)
  %65 = load ptr, ptr %7, align 8, !tbaa !33
  %66 = call i64 @avio_skip(ptr noundef %65, i64 noundef 4)
  %67 = load ptr, ptr %7, align 8, !tbaa !33
  %68 = call i64 @avio_skip(ptr noundef %67, i64 noundef 4)
  %69 = load ptr, ptr %7, align 8, !tbaa !33
  %70 = call i32 @avio_rl32(ptr noundef %69)
  %71 = zext i32 %70 to i64
  store i64 %71, ptr %12, align 8, !tbaa !47
  %72 = load ptr, ptr %7, align 8, !tbaa !33
  %73 = call i32 @avio_feof(ptr noundef %72)
  %74 = icmp ne i32 %73, 0
  br i1 %74, label %75, label %76

75:                                               ; preds = %52
  store i32 -1094995529, ptr %3, align 4
  store i32 1, ptr %15, align 4
  br label %102

76:                                               ; preds = %52
  %77 = load ptr, ptr %7, align 8, !tbaa !33
  %78 = load i64, ptr %12, align 8, !tbaa !47
  %79 = trunc i64 %78 to i32
  %80 = getelementptr inbounds [1024 x i8], ptr %13, i64 0, i64 0
  %81 = call i32 @avio_get_str16le(ptr noundef %77, i32 noundef %79, ptr noundef %80, i32 noundef 1024)
  store i32 %81, ptr %11, align 4, !tbaa !42
  %82 = sext i32 %81 to i64
  %83 = load i64, ptr %12, align 8, !tbaa !47
  %84 = icmp ult i64 %82, %83
  br i1 %84, label %85, label %92

85:                                               ; preds = %76
  %86 = load ptr, ptr %7, align 8, !tbaa !33
  %87 = load i64, ptr %12, align 8, !tbaa !47
  %88 = load i32, ptr %11, align 4, !tbaa !42
  %89 = sext i32 %88 to i64
  %90 = sub i64 %87, %89
  %91 = call i64 @avio_skip(ptr noundef %86, i64 noundef %90)
  br label %92

92:                                               ; preds = %85, %76
  %93 = load ptr, ptr %4, align 8, !tbaa !13
  %94 = load i32, ptr %9, align 4, !tbaa !42
  %95 = sext i32 %94 to i64
  %96 = getelementptr inbounds nuw %struct.AVRational, ptr %16, i32 0, i32 0
  store i32 1, ptr %96, align 4, !tbaa !164
  %97 = getelementptr inbounds nuw %struct.AVRational, ptr %16, i32 0, i32 1
  store i32 10000000, ptr %97, align 4, !tbaa !165
  %98 = load i64, ptr %14, align 8, !tbaa !47
  %99 = getelementptr inbounds [1024 x i8], ptr %13, i64 0, i64 0
  %100 = load i64, ptr %16, align 4
  %101 = call ptr @avpriv_new_chapter(ptr noundef %93, i64 noundef %95, i64 %100, i64 noundef %98, i64 noundef -9223372036854775808, ptr noundef %99)
  store i32 0, ptr %15, align 4
  br label %102

102:                                              ; preds = %92, %75
  call void @llvm.lifetime.end.p0(i64 8, ptr %14) #10
  %103 = load i32, ptr %15, align 4
  switch i32 %103, label %114 [
    i32 0, label %104
  ]

104:                                              ; preds = %102
  br label %105

105:                                              ; preds = %104
  %106 = load i32, ptr %9, align 4, !tbaa !42
  %107 = add nsw i32 %106, 1
  store i32 %107, ptr %9, align 4, !tbaa !42
  br label %48, !llvm.loop !166

108:                                              ; preds = %48
  %109 = load ptr, ptr %7, align 8, !tbaa !33
  %110 = load ptr, ptr %6, align 8, !tbaa !30
  %111 = getelementptr inbounds nuw %struct.ASFContext, ptr %110, i32 0, i32 12
  %112 = load i64, ptr %111, align 8, !tbaa !41
  %113 = load i64, ptr %8, align 8, !tbaa !47
  call void @align_position(ptr noundef %109, i64 noundef %112, i64 noundef %113)
  store i32 0, ptr %3, align 4
  store i32 1, ptr %15, align 4
  br label %114

114:                                              ; preds = %108, %102
  call void @llvm.lifetime.end.p0(i64 1024, ptr %13) #10
  call void @llvm.lifetime.end.p0(i64 8, ptr %12) #10
  call void @llvm.lifetime.end.p0(i64 4, ptr %11) #10
  call void @llvm.lifetime.end.p0(i64 4, ptr %10) #10
  call void @llvm.lifetime.end.p0(i64 4, ptr %9) #10
  call void @llvm.lifetime.end.p0(i64 8, ptr %8) #10
  call void @llvm.lifetime.end.p0(i64 8, ptr %7) #10
  call void @llvm.lifetime.end.p0(i64 8, ptr %6) #10
  %115 = load i32, ptr %3, align 4
  ret i32 %115
}