; Function Attrs: nounwind uwtable
define internal range(i32 -1094995529, 1) i32 @asf_read_marker(ptr noundef %0, ptr readnone captures(none) %1) #1 {
  %3 = alloca [1024 x i8], align 16
  %4 = getelementptr inbounds nuw i8, ptr %0, i64 24
  %5 = load ptr, ptr %4, align 8, !tbaa !11
  %6 = getelementptr inbounds nuw i8, ptr %0, i64 32
  %7 = load ptr, ptr %6, align 8, !tbaa !26
  %8 = tail call i64 @avio_rl64(ptr noundef %7) #12
  call void @llvm.lifetime.start.p0(i64 1024, ptr nonnull %3) #12
  %9 = tail call i64 @avio_skip(ptr noundef %7, i64 noundef 8) #12
  %10 = tail call i64 @avio_skip(ptr noundef %7, i64 noundef 8) #12
  %11 = tail call i32 @avio_rl32(ptr noundef %7) #12
  %12 = tail call i64 @avio_skip(ptr noundef %7, i64 noundef 2) #12
  %13 = tail call i32 @avio_rl16(ptr noundef %7) #12
  %.not45 = icmp eq i32 %13, 0
  br i1 %.not45, label %.preheader, label %.lr.ph

.preheader:                                       ; preds = %.lr.ph, %2
  %14 = icmp sgt i32 %11, 0
  br i1 %14, label %.lr.ph44, label %._crit_edge

.lr.ph44:                                         ; preds = %.preheader
  %15 = getelementptr inbounds nuw i8, ptr %5, i64 16
  %wide.trip.count = zext nneg i32 %11 to i64
  br label %18

.lr.ph:                                           ; preds = %2, %.lr.ph
  %.03742 = phi i32 [ %17, %.lr.ph ], [ 0, %2 ]
  %16 = tail call i64 @avio_skip(ptr noundef %7, i64 noundef 1) #12
  %17 = add nuw i32 %.03742, 1
  %exitcond.not = icmp eq i32 %17, %13
  br i1 %exitcond.not, label %.preheader, label %.lr.ph, !llvm.loop !163

18:                                               ; preds = %.lr.ph44, %36
  %indvars.iv = phi i64 [ 0, %.lr.ph44 ], [ %indvars.iv.next, %36 ]
  %19 = call i64 @avio_skip(ptr noundef %7, i64 noundef 8) #12
  %20 = call i64 @avio_rl64(ptr noundef %7) #12
  %21 = load i64, ptr %15, align 8, !tbaa !27
  %.neg = mul i64 %21, -10000
  %22 = add i64 %.neg, %20
  %23 = call i64 @avio_skip(ptr noundef %7, i64 noundef 2) #12
  %24 = call i64 @avio_skip(ptr noundef %7, i64 noundef 4) #12
  %25 = call i64 @avio_skip(ptr noundef %7, i64 noundef 4) #12
  %26 = call i32 @avio_rl32(ptr noundef %7) #12
  %27 = zext i32 %26 to i64
  %28 = call i32 @avio_feof(ptr noundef %7) #12
  %.not = icmp eq i32 %28, 0
  br i1 %.not, label %29, label %.critedge

29:                                               ; preds = %18
  %30 = call i32 @avio_get_str16le(ptr noundef %7, i32 noundef %26, ptr noundef nonnull %3, i32 noundef 1024) #12
  %31 = sext i32 %30 to i64
  %32 = icmp ult i64 %31, %27
  br i1 %32, label %33, label %36

33:                                               ; preds = %29
  %34 = sub nuw nsw i64 %27, %31
  %35 = call i64 @avio_skip(ptr noundef %7, i64 noundef %34) #12
  br label %36

36:                                               ; preds = %29, %33
  %37 = call ptr @avpriv_new_chapter(ptr noundef %0, i64 noundef %indvars.iv, i64 42949672960000001, i64 noundef %22, i64 noundef -9223372036854775808, ptr noundef nonnull %3) #12
  %indvars.iv.next = add nuw nsw i64 %indvars.iv, 1
  %exitcond47.not = icmp eq i64 %indvars.iv.next, %wide.trip.count
  br i1 %exitcond47.not, label %._crit_edge, label %18, !llvm.loop !164

._crit_edge:                                      ; preds = %36, %.preheader
  %38 = getelementptr inbounds nuw i8, ptr %5, i64 80
  %39 = load i64, ptr %38, align 8, !tbaa !32
  %40 = sub nsw i64 9223372036854775807, %39
  %41 = icmp ult i64 %8, %40
  br i1 %41, label %42, label %.critedge

42:                                               ; preds = %._crit_edge
  %43 = call i64 @avio_seek(ptr noundef %7, i64 noundef 0, i32 noundef 1) #12
  %44 = add i64 %39, %8
  %.not.i = icmp eq i64 %43, %44
  br i1 %.not.i, label %.critedge, label %45

45:                                               ; preds = %42
  %46 = call i64 @avio_seek(ptr noundef %7, i64 noundef %44, i32 noundef 0) #12
  br label %.critedge

.critedge:                                        ; preds = %18, %45, %42, %._crit_edge
  %.2 = phi i32 [ 0, %._crit_edge ], [ 0, %42 ], [ 0, %45 ], [ -1094995529, %18 ]
  call void @llvm.lifetime.end.p0(i64 1024, ptr nonnull %3) #12
  ret i32 %.2
}